; Function Attrs: nounwind uwtable
define hidden noundef i32 @dom_node_attributes_read(ptr noundef %0, ptr noundef %1) local_unnamed_addr #0 {
  %3 = tail call ptr @dom_object_get_node(ptr noundef %0) #12
  %4 = icmp eq ptr %3, null
  br i1 %4, label %5, label %6

5:                                                ; preds = %2
  tail call void @php_dom_throw_error(i32 noundef 11, i32 noundef 1) #12
  br label %15

6:                                                ; preds = %2
  %7 = getelementptr inbounds i8, ptr %3, i64 8
  %8 = load i32, ptr %7, align 8
  %9 = icmp eq i32 %8, 1
  br i1 %9, label %10, label %13

10:                                               ; preds = %6
  tail call void @php_dom_create_iterator(ptr noundef %1, i32 noundef 1) #12
  %11 = load ptr, ptr %1, align 8
  %12 = getelementptr inbounds i8, ptr %11, i64 -24
  tail call void @dom_namednode_iter(ptr noundef %0, i32 noundef 2, ptr noundef nonnull %12, ptr noundef null, ptr noundef null, i64 noundef 0, ptr noundef null, i64 noundef 0) #12
  br label %15

13:                                               ; preds = %6
  %14 = getelementptr inbounds i8, ptr %1, i64 8
  store i32 1, ptr %14, align 8
  br label %15

15:                                               ; preds = %10, %13, %5
  %.0 = phi i32 [ -1, %5 ], [ 0, %13 ], [ 0, %10 ]
  ret i32 %.0
}